target datalayout = "e-m:e-p270:32:32-p271:32:32-p272:64:64-i64:64-i128:128-f80:128-n8:16:32:64-S128"
target triple = "x86_64-pc-linux-gnu"

%struct.IncrementalSortState = type { %struct.ScanState, i8, i64, i8, i64, i32, i64, ptr, ptr, ptr, %struct.IncrementalSortInfo, ptr, ptr, i8, ptr }
%struct.ScanState = type { %struct.PlanState, ptr, ptr, ptr }
%struct.PlanState = type { i32, ptr, ptr, ptr, ptr, ptr, ptr, ptr, ptr, ptr, ptr, ptr, ptr, ptr, ptr, ptr, ptr, ptr, i8, ptr, ptr, ptr, ptr, ptr, i8, i8, i8, i8, i8, i8, i8, i8 }
%struct.IncrementalSortInfo = type { %struct.IncrementalSortGroupInfo, %struct.IncrementalSortGroupInfo }
%struct.IncrementalSortGroupInfo = type { i64, i64, i64, i64, i64, i32 }
%struct.Plan = type { i32, i32, double, double, double, i32, i8, i8, i8, i32, ptr, ptr, ptr, ptr, ptr, ptr, ptr }
%struct.IncrementalSort = type { %struct.Sort, i32 }
%struct.Sort = type { %struct.Plan, i32, ptr, ptr, ptr, ptr }
%struct.TupleTableSlot = type { i32, i16, i16, ptr, ptr, ptr, ptr, ptr, %struct.ItemPointerData, i32 }
%struct.ItemPointerData = type { %struct.BlockIdData, i16 }
%struct.BlockIdData = type { i16, i16 }
%struct.PresortedKeyData = type { %struct.FmgrInfo, ptr, i16 }
%struct.FmgrInfo = type { ptr, i32, i16, i8, i8, i8, ptr, ptr, ptr }
%struct.FunctionCallInfoBaseData = type { ptr, ptr, ptr, i32, i8, i16, [0 x %struct.NullableDatum] }
%struct.NullableDatum = type { i64, i8 }

@.str.1 = private unnamed_addr constant [22 x i8] c"nodeIncrementalSort.c\00", align 1
@.str.3 = private unnamed_addr constant [26 x i8] c"function %u returned NULL\00", align 1
@__func__.isCurrentGroup = private unnamed_addr constant [15 x i8] c"isCurrentGroup\00", align 1

; Function Attrs: inlinehint nounwind uwtable
define internal void @slot_getsomeattrs(ptr noundef %0, i32 noundef %1) #2 {
  %3 = alloca ptr, align 8
  %4 = alloca i32, align 4
  store ptr %0, ptr %3, align 8
  store i32 %1, ptr %4, align 4
  %5 = load ptr, ptr %3, align 8
  %6 = getelementptr inbounds nuw %struct.TupleTableSlot, ptr %5, i32 0, i32 2
  %7 = load i16, ptr %6, align 2
  %8 = sext i16 %7 to i32
  %9 = load i32, ptr %4, align 4
  %10 = icmp slt i32 %8, %9
  br i1 %10, label %11, label %14

11:                                               ; preds = %2
  %12 = load ptr, ptr %3, align 8
  %13 = load i32, ptr %4, align 4
  call void @slot_getsomeattrs_int(ptr noundef %12, i32 noundef %13)
  br label %14

14:                                               ; preds = %11, %2
  ret void
}

; Function Attrs: inlinehint nounwind uwtable
define internal zeroext i1 @DatumGetBool(i64 noundef %0) #2 {
  %2 = alloca i64, align 8
  store i64 %0, ptr %2, align 8
  %3 = load i64, ptr %2, align 8
  %4 = icmp ne i64 %3, 0
  ret i1 %4
}

; Function Attrs: inlinehint nounwind uwtable
define internal i64 @slot_getattr(ptr noundef %0, i32 noundef %1, ptr noundef %2) #2 {
  %4 = alloca ptr, align 8
  %5 = alloca i32, align 4
  %6 = alloca ptr, align 8
  store ptr %0, ptr %4, align 8
  store i32 %1, ptr %5, align 4
  store ptr %2, ptr %6, align 8
  %7 = load i32, ptr %5, align 4
  %8 = load ptr, ptr %4, align 8
  %9 = getelementptr inbounds nuw %struct.TupleTableSlot, ptr %8, i32 0, i32 2
  %10 = load i16, ptr %9, align 2
  %11 = sext i16 %10 to i32
  %12 = icmp sgt i32 %7, %11
  br i1 %12, label %13, label %16

13:                                               ; preds = %3
  %14 = load ptr, ptr %4, align 8
  %15 = load i32, ptr %5, align 4
  call void @slot_getsomeattrs(ptr noundef %14, i32 noundef %15)
  br label %16

16:                                               ; preds = %13, %3
  %17 = load ptr, ptr %4, align 8
  %18 = getelementptr inbounds nuw %struct.TupleTableSlot, ptr %17, i32 0, i32 6
  %19 = load ptr, ptr %18, align 8
  %20 = load i32, ptr %5, align 4
  %21 = sub i32 %20, 1
  %22 = sext i32 %21 to i64
  %23 = getelementptr inbounds i8, ptr %19, i64 %22
  %24 = load i8, ptr %23, align 1, !range !4, !noundef !5
  %25 = trunc i8 %24 to i1
  %26 = load ptr, ptr %6, align 8
  %27 = zext i1 %25 to i8
  store i8 %27, ptr %26, align 1
  %28 = load ptr, ptr %4, align 8
  %29 = getelementptr inbounds nuw %struct.TupleTableSlot, ptr %28, i32 0, i32 5
  %30 = load ptr, ptr %29, align 8
  %31 = load i32, ptr %5, align 4
  %32 = sub i32 %31, 1
  %33 = sext i32 %32 to i64
  %34 = getelementptr inbounds i64, ptr %30, i64 %33
  %35 = load i64, ptr %34, align 8
  ret i64 %35
}

; Function Attrs: nounwind uwtable
define internal zeroext i1 @isCurrentGroup(ptr noundef %0, ptr noundef %1, ptr noundef %2) #0 {
  %4 = alloca i1, align 1
  %5 = alloca ptr, align 8
  %6 = alloca ptr, align 8
  %7 = alloca ptr, align 8
  %8 = alloca i32, align 4
  %9 = alloca i32, align 4
  %10 = alloca i32, align 4
  %11 = alloca i64, align 8
  %12 = alloca i64, align 8
  %13 = alloca i64, align 8
  %14 = alloca i8, align 1
  %15 = alloca i8, align 1
  %16 = alloca i16, align 2
  %17 = alloca ptr, align 8
  store ptr %0, ptr %5, align 8
  store ptr %1, ptr %6, align 8
  store ptr %2, ptr %7, align 8
  call void @llvm.lifetime.start.p0(i64 4, ptr %8) #8
  %18 = load ptr, ptr %5, align 8
  %19 = getelementptr inbounds nuw %struct.IncrementalSortState, ptr %18, i32 0, i32 0
  %20 = getelementptr inbounds nuw %struct.ScanState, ptr %19, i32 0, i32 0
  %21 = getelementptr inbounds nuw %struct.PlanState, ptr %20, i32 0, i32 1
  %22 = load ptr, ptr %21, align 8
  %23 = getelementptr inbounds nuw %struct.IncrementalSort, ptr %22, i32 0, i32 1
  %24 = load i32, ptr %23, align 8
  store i32 %24, ptr %8, align 4
  call void @llvm.lifetime.start.p0(i64 4, ptr %9) #8
  %25 = load i32, ptr %8, align 4
  %26 = sub i32 %25, 1
  store i32 %26, ptr %9, align 4
  br label %27

27:                                               ; preds = %128, %3
  %28 = load i32, ptr %9, align 4
  %29 = icmp sge i32 %28, 0
  br i1 %29, label %31, label %30

30:                                               ; preds = %27
  store i32 2, ptr %10, align 4
  br label %131

31:                                               ; preds = %27
  call void @llvm.lifetime.start.p0(i64 8, ptr %11) #8
  call void @llvm.lifetime.start.p0(i64 8, ptr %12) #8
  call void @llvm.lifetime.start.p0(i64 8, ptr %13) #8
  call void @llvm.lifetime.start.p0(i64 1, ptr %14) #8
  call void @llvm.lifetime.start.p0(i64 1, ptr %15) #8
  call void @llvm.lifetime.start.p0(i64 2, ptr %16) #8
  %32 = load ptr, ptr %5, align 8
  %33 = getelementptr inbounds nuw %struct.IncrementalSortState, ptr %32, i32 0, i32 9
  %34 = load ptr, ptr %33, align 8
  %35 = load i32, ptr %9, align 4
  %36 = sext i32 %35 to i64
  %37 = getelementptr inbounds %struct.PresortedKeyData, ptr %34, i64 %36
  %38 = getelementptr inbounds nuw %struct.PresortedKeyData, ptr %37, i32 0, i32 2
  %39 = load i16, ptr %38, align 8
  store i16 %39, ptr %16, align 2
  call void @llvm.lifetime.start.p0(i64 8, ptr %17) #8
  %40 = load ptr, ptr %6, align 8
  %41 = load i16, ptr %16, align 2
  %42 = sext i16 %41 to i32
  %43 = call i64 @slot_getattr(ptr noundef %40, i32 noundef %42, ptr noundef %14)
  store i64 %43, ptr %11, align 8
  %44 = load ptr, ptr %7, align 8
  %45 = load i16, ptr %16, align 2
  %46 = sext i16 %45 to i32
  %47 = call i64 @slot_getattr(ptr noundef %44, i32 noundef %46, ptr noundef %15)
  store i64 %47, ptr %12, align 8
  %48 = load i8, ptr %14, align 1, !range !4, !noundef !5
  %49 = trunc i8 %48 to i1
  br i1 %49, label %53, label %50

50:                                               ; preds = %31
  %51 = load i8, ptr %15, align 1, !range !4, !noundef !5
  %52 = trunc i8 %51 to i1
  br i1 %52, label %53, label %63

53:                                               ; preds = %50, %31
  %54 = load i8, ptr %14, align 1, !range !4, !noundef !5
  %55 = trunc i8 %54 to i1
  %56 = zext i1 %55 to i32
  %57 = load i8, ptr %15, align 1, !range !4, !noundef !5
  %58 = trunc i8 %57 to i1
  %59 = zext i1 %58 to i32
  %60 = icmp eq i32 %56, %59
  br i1 %60, label %61, label %62

61:                                               ; preds = %53
  store i32 4, ptr %10, align 4
  br label %125

62:                                               ; preds = %53
  store i1 false, ptr %4, align 1
  store i32 1, ptr %10, align 4
  br label %125

63:                                               ; preds = %50
  %64 = load ptr, ptr %5, align 8
  %65 = getelementptr inbounds nuw %struct.IncrementalSortState, ptr %64, i32 0, i32 9
  %66 = load ptr, ptr %65, align 8
  %67 = load i32, ptr %9, align 4
  %68 = sext i32 %67 to i64
  %69 = getelementptr inbounds %struct.PresortedKeyData, ptr %66, i64 %68
  store ptr %69, ptr %17, align 8
  %70 = load i64, ptr %11, align 8
  %71 = load ptr, ptr %17, align 8
  %72 = getelementptr inbounds nuw %struct.PresortedKeyData, ptr %71, i32 0, i32 1
  %73 = load ptr, ptr %72, align 8
  %74 = getelementptr inbounds nuw %struct.FunctionCallInfoBaseData, ptr %73, i32 0, i32 6
  %75 = getelementptr inbounds [0 x %struct.NullableDatum], ptr %74, i64 0, i64 0
  %76 = getelementptr inbounds nuw %struct.NullableDatum, ptr %75, i32 0, i32 0
  store i64 %70, ptr %76, align 8
  %77 = load i64, ptr %12, align 8
  %78 = load ptr, ptr %17, align 8
  %79 = getelementptr inbounds nuw %struct.PresortedKeyData, ptr %78, i32 0, i32 1
  %80 = load ptr, ptr %79, align 8
  %81 = getelementptr inbounds nuw %struct.FunctionCallInfoBaseData, ptr %80, i32 0, i32 6
  %82 = getelementptr inbounds [0 x %struct.NullableDatum], ptr %81, i64 0, i64 1
  %83 = getelementptr inbounds nuw %struct.NullableDatum, ptr %82, i32 0, i32 0
  store i64 %77, ptr %83, align 8
  %84 = load ptr, ptr %17, align 8
  %85 = getelementptr inbounds nuw %struct.PresortedKeyData, ptr %84, i32 0, i32 1
  %86 = load ptr, ptr %85, align 8
  %87 = getelementptr inbounds nuw %struct.FunctionCallInfoBaseData, ptr %86, i32 0, i32 4
  store i8 0, ptr %87, align 4
  %88 = load ptr, ptr %17, align 8
  %89 = getelementptr inbounds nuw %struct.PresortedKeyData, ptr %88, i32 0, i32 1
  %90 = load ptr, ptr %89, align 8
  %91 = getelementptr inbounds nuw %struct.FunctionCallInfoBaseData, ptr %90, i32 0, i32 0
  %92 = load ptr, ptr %91, align 8
  %93 = getelementptr inbounds nuw %struct.FmgrInfo, ptr %92, i32 0, i32 0
  %94 = load ptr, ptr %93, align 8
  %95 = load ptr, ptr %17, align 8
  %96 = getelementptr inbounds nuw %struct.PresortedKeyData, ptr %95, i32 0, i32 1
  %97 = load ptr, ptr %96, align 8
  %98 = call i64 %94(ptr noundef %97)
  store i64 %98, ptr %13, align 8
  %99 = load ptr, ptr %17, align 8
  %100 = getelementptr inbounds nuw %struct.PresortedKeyData, ptr %99, i32 0, i32 1
  %101 = load ptr, ptr %100, align 8
  %102 = getelementptr inbounds nuw %struct.FunctionCallInfoBaseData, ptr %101, i32 0, i32 4
  %103 = load i8, ptr %102, align 4, !range !4, !noundef !5
  %104 = trunc i8 %103 to i1
  br i1 %104, label %105, label %120

105:                                              ; preds = %63
  br label %106

106:                                              ; preds = %105
  br i1 true, label %107, label %109

107:                                              ; preds = %106
  %108 = call zeroext i1 @errstart_cold(i32 noundef 21, ptr noundef null) #9
  br i1 %108, label %111, label %117

109:                                              ; preds = %106
  %110 = call zeroext i1 @errstart(i32 noundef 21, ptr noundef null)
  br i1 %110, label %111, label %117

111:                                              ; preds = %109, %107
  %112 = load ptr, ptr %17, align 8
  %113 = getelementptr inbounds nuw %struct.PresortedKeyData, ptr %112, i32 0, i32 0
  %114 = getelementptr inbounds nuw %struct.FmgrInfo, ptr %113, i32 0, i32 1
  %115 = load i32, ptr %114, align 8
  %116 = call i32 (ptr, ...) @errmsg_internal(ptr noundef @.str.3, i32 noundef %115)
  call void @errfinish(ptr noundef @.str.1, i32 noundef 258, ptr noundef @__func__.isCurrentGroup)
  br label %117

117:                                              ; preds = %111, %109, %107
  unreachable

118:                                              ; No predecessors!
  br label %119

119:                                              ; preds = %118
  br label %120

120:                                              ; preds = %119, %63
  %121 = load i64, ptr %13, align 8
  %122 = call zeroext i1 @DatumGetBool(i64 noundef %121)
  br i1 %122, label %124, label %123

123:                                              ; preds = %120
  store i1 false, ptr %4, align 1
  store i32 1, ptr %10, align 4
  br label %125

124:                                              ; preds = %120
  store i32 0, ptr %10, align 4
  br label %125

125:                                              ; preds = %124, %123, %62, %61
  call void @llvm.lifetime.end.p0(i64 8, ptr %17) #8
  call void @llvm.lifetime.end.p0(i64 2, ptr %16) #8
  call void @llvm.lifetime.end.p0(i64 1, ptr %15) #8
  call void @llvm.lifetime.end.p0(i64 1, ptr %14) #8
  call void @llvm.lifetime.end.p0(i64 8, ptr %13) #8
  call void @llvm.lifetime.end.p0(i64 8, ptr %12) #8
  call void @llvm.lifetime.end.p0(i64 8, ptr %11) #8
  %126 = load i32, ptr %10, align 4
  switch i32 %126, label %131 [
    i32 0, label %127
    i32 4, label %128
  ]

127:                                              ; preds = %125
  br label %128

128:                                              ; preds = %127, %125
  %129 = load i32, ptr %9, align 4
  %130 = add i32 %129, -1
  store i32 %130, ptr %9, align 4
  br label %27, !llvm.loop !9

131:                                              ; preds = %125, %30
  call void @llvm.lifetime.end.p0(i64 4, ptr %9) #8
  %132 = load i32, ptr %10, align 4
  switch i32 %132, label %134 [
    i32 2, label %133
  ]

133:                                              ; preds = %131
  store i1 true, ptr %4, align 1
  store i32 1, ptr %10, align 4
  br label %134

134:                                              ; preds = %133, %131
  call void @llvm.lifetime.end.p0(i64 4, ptr %8) #8
  %135 = load i1, ptr %4, align 1
  ret i1 %135
}